Certificate:
    Data:
        Version: 3 (0x2)
        Serial Number: 1 (0x1)
    Signature Algorithm: sha256WithRSAEncryption
        Issuer: C=US, ST=Maryland, L=Baltimore, O=Test CA, Limited, OU=Server Research Department, CN=Test CA/emailAddress=test@example.com
        Validity
            Not Before: Jul 25 20:51:53 2017 GMT
            Not After : Apr 20 20:51:53 2020 GMT
        Subject: C=US, ST=MD, L=Baltimore, O=Test CA, Limited, CN=fakelocalhost.com
        Subject Public Key Info:
            Public Key Algorithm: rsaEncryption
                Public-Key: (2048 bit)
                Modulus:
                    00:c1:e3:4f:5a:46:58:76:c8:05:24:aa:01:66:15:
                    19:7a:6b:d3:8e:d9:4c:01:be:6c:a7:76:a7:a8:44:
                    7e:a9:ce:a0:a0:13:89:96:4e:b0:40:39:65:3c:c5:
                    bb:78:21:34:cb:7c:fb:02:aa:74:98:fe:29:86:c9:
                    43:9d:5d:38:23:f9:22:bd:26:72:d9:cf:82:48:ce:
                    e2:2b:af:a1:15:aa:13:7d:35:6f:b7:b3:b0:70:ab:
                    e2:e1:de:10:7a:47:3d:1c:87:31:72:0b:69:40:71:
                    0b:18:21:ed:30:c1:14:06:cd:05:44:33:76:f4:35:
                    04:65:0b:de:63:9d:11:b4:76:d4:da:b8:07:40:e5:
                    20:df:33:6d:cf:4e:e8:a3:27:22:c3:b7:c8:82:fb:
                    41:57:11:c5:a8:35:90:15:f4:38:39:2d:f2:3f:b9:
                    2e:c8:d3:42:b8:89:6b:2a:7e:86:4f:1a:5b:a7:6b:
                    6e:ee:ac:45:3a:9a:0f:bb:40:e6:1c:9b:36:ce:b4:
                    c1:55:8e:05:51:6e:2d:ea:73:0d:26:0d:9e:54:cd:
                    48:77:72:db:84:08:d7:e0:76:18:14:e3:9b:eb:98:
                    41:32:16:d3:1e:35:58:dd:91:21:53:e2:40:f4:89:
                    14:48:32:6f:ca:7e:6c:9b:a9:3a:8c:bc:0f:e9:1c:
                    61:f7
                Exponent: 65537 (0x10001)
        X509v3 extensions:
            X509v3 Subject Key Identifier: 
                07:03:28:46:CC:20:2D:4A:1F:EC:50:F0:32:B5:A4:2A:77:7E:28:95
            X509v3 Authority Key Identifier: 
                keyid:26:90:2E:E1:78:77:DD:DA:08:69:BE:1A:82:32:DA:A8:F5:4B:70:43

            X509v3 Basic Constraints: 
                CA:FALSE
            X509v3 Key Usage: 
                Digital Signature, Key Encipherment
            X509v3 Subject Alternative Name: 
                DNS:192.168.32.133
            Netscape Comment: 
                OpenSSL Generated Certificate
    Signature Algorithm: sha256WithRSAEncryption
         53:11:df:6d:0b:44:75:92:c5:a3:3b:e0:0a:83:1e:fd:10:1f:
         42:4d:77:d1:ba:15:ed:e9:28:3d:61:52:9c:14:85:09:98:b0:
         f1:af:d4:16:bd:7b:38:9b:65:11:0d:c2:4f:3c:e4:52:47:4f:
         82:a7:48:c5:08:dd:d2:87:25:ad:25:8a:9a:db:7d:05:05:58:
         29:c8:7e:72:3a:25:39:af:2a:e7:54:d4:d2:ff:e9:de:ea:06:
         61:96:8d:10:10:18:ae:e6:5c:7f:63:21:59:c0:7a:97:18:24:
         f1:5c:ef:40:67:69:75:68:d2:3f:17:49:96:96:ab:de:95:da:
         3b:f1:42:0a:c2:d0:f4:df:71:0a:4a:cb:3e:d2:06:5c:1e:25:
         39:67:67:e4:19:ed:a1:e8:6e:a8:6b:91:d0:cc:d2:56:c2:c2:
         1f:67:7f:88:f9:09:58:65:1a:a7:a7:61:4b:ec:4d:9e:ae:e3:
         20:4e:87:37:16:0b:2f:e8:22:05:2c:a1:e6:b8:6d:54:af:4a:
         88:7a:08:ac:ae:4b:ec:09:58:e3:68:81:c2:32:3a:4c:c3:bc:
         4e:24:7a:db:d6:07:fa:f1:8f:11:d6:4f:5b:15:81:6b:1a:e4:
         21:c5:51:ec:79:20:b8:05:ac:d8:ce:25:2f:cf:9e:22:32:21:
         f9:54:9a:96:d5:54:a9:be:48:ea:9d:67:83:e2:d4:64:da:42:
         0c:2e:b6:08:c9:f8:9e:17:0a:af:9f:c7:82:cd:8c:d7:71:09:
         08:c4:6e:3b:cb:1e:d2:04:9a:a8:12:8b:a7:f9:44:93:46:4e:
         eb:ce:c8:0c:24:6d:31:ed:9e:76:d9:5d:76:82:e1:1c:f6:63:
         d4:b7:f1:09:eb:73:91:98:33:f3:a8:e8:71:99:7f:39:ca:da:
         46:65:ae:19:c2:62:f8:06:29:21:85:43:95:61:b3:dc:21:8c:
         a7:05:59:9f:3a:b4:b7:ff:ad:8f:49:ba:8e:77:9f:f5:54:72:
         fc:e8:df:0c:78:c3:51:d9:4d:0d:3f:d1:fa:e9:00:f4:96:f3:
         22:08:5b:58:a1:7b:b5:97:2c:2b:f5:29:84:20:16:b1:6c:5d:
         8d:1a:bb:65:19:1a:98:bc:62:06:cf:06:d6:fb:dc:59:74:ea:
         dc:a5:e9:31:b4:65:2e:f6:7c:7b:05:71:59:59:93:c1:06:c2:
         75:70:69:1c:af:6e:14:0e:2d:28:da:72:33:89:77:9c:71:39:
         8a:de:ed:39:3b:a4:bc:71:ae:1a:eb:64:52:ef:fb:4a:a4:46:
         9c:a6:dd:f1:3e:41:e5:15:01:a9:2e:76:64:60:da:31:6a:9b:
         4b:40:ca:c5:4c:18:6c:7b
-----BEGIN CERTIFICATE-----
MIIFLTCCAxWgAwIBAgIBATANBgkqhkiG9w0BAQsFADCBpzELMAkGA1UEBhMCVVMx
ETAPBgNVBAgMCE1hcnlsYW5kMRIwEAYDVQQHDAlCYWx0aW1vcmUxGTAXBgNVBAoM
EFRlc3QgQ0EsIExpbWl0ZWQxIzAhBgNVBAsMGlNlcnZlciBSZXNlYXJjaCBEZXBh
cnRtZW50MRAwDgYDVQQDDAdUZXN0IENBMR8wHQYJKoZIhvcNAQkBFhB0ZXN0QGV4
YW1wbGUuY29tMB4XDTE3MDcyNTIwNTE1M1oXDTIwMDQyMDIwNTE1M1owZTELMAkG
A1UEBhMCVVMxCzAJBgNVBAgMAk1EMRIwEAYDVQQHDAlCYWx0aW1vcmUxGTAXBgNV
BAoMEFRlc3QgQ0EsIExpbWl0ZWQxGjAYBgNVBAMMEWZha2Vsb2NhbGhvc3QuY29t
MIIBIjANBgkqhkiG9w0BAQEFAAOCAQ8AMIIBCgKCAQEAweNPWkZYdsgFJKoBZhUZ
emvTjtlMAb5sp3anqER+qc6goBOJlk6wQDllPMW7eCE0y3z7Aqp0mP4phslDnV04
I/kivSZy2c+CSM7iK6+hFaoTfTVvt7OwcKvi4d4Qekc9HIcxcgtpQHELGCHtMMEU
Bs0FRDN29DUEZQveY50RtHbU2rgHQOUg3zNtz07ooyciw7fIgvtBVxHFqDWQFfQ4
OS3yP7kuyNNCuIlrKn6GTxpbp2tu7qxFOpoPu0DmHJs2zrTBVY4FUW4t6nMNJg2e
VM1Id3LbhAjX4HYYFOOb65hBMhbTHjVY3ZEhU+JA9IkUSDJvyn5sm6k6jLwP6Rxh
9wIDAQABo4GkMIGhMB0GA1UdDgQWBBQHAyhGzCAtSh/sUPAytaQqd34olTAfBgNV
HSMEGDAWgBQmkC7heHfd2ghpvhqCMtqo9UtwQzAJBgNVHRMEAjAAMAsGA1UdDwQE
AwIFoDAZBgNVHREEEjAQgg4xOTIuMTY4LjMyLjEzMzAsBglghkgBhvhCAQ0EHxYd
T3BlblNTTCBHZW5lcmF0ZWQgQ2VydGlmaWNhdGUwDQYJKoZIhvcNAQELBQADggIB
AFMR320LRHWSxaM74AqDHv0QH0JNd9G6Fe3pKD1hUpwUhQmYsPGv1Ba9ezibZREN
wk885FJHT4KnSMUI3dKHJa0liprbfQUFWCnIfnI6JTmvKudU1NL/6d7qBmGWjRAQ
GK7mXH9jIVnAepcYJPFc70BnaXVo0j8XSZaWq96V2jvxQgrC0PTfcQpKyz7SBlwe
JTlnZ+QZ7aHobqhrkdDM0lbCwh9nf4j5CVhlGqenYUvsTZ6u4yBOhzcWCy/oIgUs
oea4bVSvSoh6CKyuS+wJWONogcIyOkzDvE4ketvWB/rxjxHWT1sVgWsa5CHFUex5
ILgFrNjOJS/PniIyIflUmpbVVKm+SOqdZ4Pi1GTaQgwutgjJ+J4XCq+fx4LNjNdx
CQjEbjvLHtIEmqgSi6f5RJNGTuvOyAwkbTHtnnbZXXaC4Rz2Y9S38Qnrc5GYM/Oo
6HGZfznK2kZlrhnCYvgGKSGFQ5Vhs9whjKcFWZ86tLf/rY9Juo53n/VUcvzo3wx4
w1HZTQ0/0frpAPSW8yIIW1ihe7WXLCv1KYQgFrFsXY0au2UZGpi8YgbPBtb73Fl0
6tyl6TG0ZS72fHsFcVlZk8EGwnVwaRyvbhQOLSjacjOJd5xxOYre7Tk7pLxxrhrr
ZFLv+0qkRpym3fE+QeUVAakudmRg2jFqm0tAysVMGGx7
-----END CERTIFICATE-----
