Certificate:
    Data:
        Version: 3 (0x2)
        Serial Number: 2 (0x2)
    Signature Algorithm: sha256WithRSAEncryption
        Issuer: C=US, ST=Maryland, L=Baltimore, O=Test CA, Limited, OU=Server Research Department, CN=Test CA/emailAddress=test@example.com
        Validity
            Not Before: Jul 26 09:17:16 2017 GMT
            Not After : Apr 21 09:17:16 2020 GMT
        Subject: C=US, ST=MD, L=Baltimore, O=Test CA, Limited, CN=fakelocalhost.com
        Subject Public Key Info:
            Public Key Algorithm: rsaEncryption
                Public-Key: (2048 bit)
                Modulus:
                    00:ef:08:d3:95:94:98:17:45:1f:3c:dd:66:e9:89:
                    10:f4:1b:7d:bf:1b:7e:7c:97:82:bf:6b:6f:53:02:
                    5b:3c:f5:4b:73:c7:04:50:cc:c4:7f:7e:8f:dd:4a:
                    2c:dc:1c:ed:de:d9:d2:0d:c6:c4:9c:11:ea:95:40:
                    bf:79:31:14:fc:00:27:c7:a1:00:9b:b8:4c:5d:9d:
                    f7:16:1b:16:f4:30:bb:44:21:9c:fa:d6:20:ec:ab:
                    4b:13:4b:27:fb:5b:ec:5d:89:48:21:b6:30:a3:a6:
                    80:2f:af:7a:02:e5:cb:7d:49:b9:e9:7c:5f:e7:a8:
                    de:1a:ff:42:ab:77:32:d3:cf:8c:97:4c:58:a2:87:
                    39:02:8e:65:9d:28:9a:6b:69:40:a5:49:f1:c0:56:
                    ae:d0:76:ea:ff:fa:84:46:0d:76:14:7a:41:73:73:
                    cb:4b:f5:5f:fb:11:6a:4a:00:dd:d0:30:98:e3:80:
                    de:5d:f0:1f:32:a5:87:6f:38:9a:c0:7e:fe:ba:b4:
                    06:12:f3:4b:d2:a0:3d:f4:29:6d:dc:0c:6c:d1:c5:
                    26:d0:1b:57:86:d2:60:c8:4b:10:8e:10:e6:95:7e:
                    be:6e:35:01:f9:47:0c:86:5e:7c:91:8c:39:b6:35:
                    18:4a:29:a3:66:f0:5d:7d:f9:49:2c:83:18:70:da:
                    bf:1d
                Exponent: 65537 (0x10001)
        X509v3 extensions:
            X509v3 Subject Key Identifier: 
                A4:85:21:D4:C4:E9:8E:1B:80:EF:6A:78:C1:65:BC:0E:A4:50:82:20
            X509v3 Authority Key Identifier: 
                keyid:26:90:2E:E1:78:77:DD:DA:08:69:BE:1A:82:32:DA:A8:F5:4B:70:43

            X509v3 Basic Constraints: 
                CA:FALSE
            X509v3 Key Usage: 
                Digital Signature, Key Encipherment
            X509v3 Subject Alternative Name: 
                DNS:192.168.32.133, DNS:fakedomain.com, DNS:fakelocalhost.com
            Netscape Comment: 
                OpenSSL Generated Certificate
    Signature Algorithm: sha256WithRSAEncryption
         5f:51:df:86:56:37:1a:29:7d:8e:fa:cd:a3:17:bd:49:de:ac:
         75:9f:51:d8:18:95:f3:2f:25:3b:4a:26:61:8a:6e:4f:59:ab:
         92:2d:5b:30:35:e1:d4:11:d1:1a:25:f1:0c:21:d8:6c:d1:79:
         af:a7:95:58:b3:87:ee:a6:fe:0b:20:54:d1:66:96:f8:bf:b3:
         b5:64:da:c2:4d:a4:7c:e0:f9:9e:6f:23:f9:5a:ca:f3:8f:cc:
         4b:e6:e5:0d:b0:1b:1e:82:56:47:13:78:64:51:13:71:9d:b1:
         b4:c7:84:d5:63:e6:df:74:f7:56:52:08:ee:4e:b6:21:d2:bc:
         36:98:1c:37:5f:8f:c9:20:d6:58:9c:9f:e9:c1:e8:3f:d3:2b:
         3d:66:53:df:84:a3:87:54:59:5d:ea:d2:03:ac:7f:1c:f4:a3:
         21:d3:01:ef:ab:f5:b9:2e:08:fe:7e:7e:00:b5:d4:e7:97:06:
         ff:f8:cf:07:53:d1:46:67:9d:55:1d:74:cb:a9:c8:1f:22:56:
         93:64:f9:bd:64:8e:ce:49:23:41:05:4e:69:4a:45:a8:79:53:
         d4:e8:7f:bb:46:79:a4:21:12:42:cf:12:50:8a:29:fc:5b:a9:
         dc:22:8b:de:68:2d:02:da:63:ba:44:cf:2e:51:b3:4c:d0:53:
         c6:50:db:42:7a:78:9b:d8:31:c2:1f:87:9f:39:cc:05:f6:8f:
         fc:d1:45:1f:0a:0d:1a:e8:c7:8b:d8:5a:22:69:53:7b:38:73:
         84:ef:e2:24:eb:77:18:a8:bc:15:e6:be:4e:f9:f0:e3:15:29:
         d6:53:6a:c9:d3:ad:66:4f:9e:d8:33:8d:61:1f:86:2c:48:a6:
         f6:07:d8:f2:fc:06:fd:ea:f3:60:42:10:e7:56:66:9d:f1:3c:
         87:a1:55:7d:87:3f:eb:1f:5c:9f:ed:74:6d:a4:92:a8:a9:03:
         6a:4a:4f:2b:b1:4d:aa:aa:e8:79:1f:df:b8:d8:9d:87:f4:f0:
         86:85:45:7c:24:3c:50:c2:d6:bd:bf:58:4d:04:34:c7:1d:c8:
         e8:c3:35:e3:71:2c:a3:bf:d0:47:50:59:9c:65:51:1b:64:a0:
         b7:50:f5:3e:2d:3f:85:b7:6d:bc:06:15:ed:20:45:91:b7:69:
         19:d7:40:23:48:29:fc:da:f7:23:16:42:a4:0e:98:d0:44:23:
         63:f0:af:d0:4d:10:f9:a3:e9:99:8e:e9:e9:10:8b:ab:de:d5:
         a7:e6:45:9b:98:ea:6b:57:b5:67:26:46:7e:72:8a:56:84:04:
         c5:3b:00:1e:b8:fc:95:6c:ad:2a:40:e4:4d:35:62:14:6d:3c:
         a7:5f:7f:2b:88:75:d2:d2
-----BEGIN CERTIFICATE-----
MIIFUDCCAzigAwIBAgIBAjANBgkqhkiG9w0BAQsFADCBpzELMAkGA1UEBhMCVVMx
ETAPBgNVBAgMCE1hcnlsYW5kMRIwEAYDVQQHDAlCYWx0aW1vcmUxGTAXBgNVBAoM
EFRlc3QgQ0EsIExpbWl0ZWQxIzAhBgNVBAsMGlNlcnZlciBSZXNlYXJjaCBEZXBh
cnRtZW50MRAwDgYDVQQDDAdUZXN0IENBMR8wHQYJKoZIhvcNAQkBFhB0ZXN0QGV4
YW1wbGUuY29tMB4XDTE3MDcyNjA5MTcxNloXDTIwMDQyMTA5MTcxNlowZTELMAkG
A1UEBhMCVVMxCzAJBgNVBAgMAk1EMRIwEAYDVQQHDAlCYWx0aW1vcmUxGTAXBgNV
BAoMEFRlc3QgQ0EsIExpbWl0ZWQxGjAYBgNVBAMMEWZha2Vsb2NhbGhvc3QuY29t
MIIBIjANBgkqhkiG9w0BAQEFAAOCAQ8AMIIBCgKCAQEA7wjTlZSYF0UfPN1m6YkQ
9Bt9vxt+fJeCv2tvUwJbPPVLc8cEUMzEf36P3Uos3Bzt3tnSDcbEnBHqlUC/eTEU
/AAnx6EAm7hMXZ33FhsW9DC7RCGc+tYg7KtLE0sn+1vsXYlIIbYwo6aAL696AuXL
fUm56Xxf56jeGv9Cq3cy08+Ml0xYooc5Ao5lnSiaa2lApUnxwFau0Hbq//qERg12
FHpBc3PLS/Vf+xFqSgDd0DCY44DeXfAfMqWHbziawH7+urQGEvNL0qA99Clt3Axs
0cUm0BtXhtJgyEsQjhDmlX6+bjUB+UcMhl58kYw5tjUYSimjZvBdfflJLIMYcNq/
HQIDAQABo4HHMIHEMB0GA1UdDgQWBBSkhSHUxOmOG4DvanjBZbwOpFCCIDAfBgNV
HSMEGDAWgBQmkC7heHfd2ghpvhqCMtqo9UtwQzAJBgNVHRMEAjAAMAsGA1UdDwQE
AwIFoDA8BgNVHREENTAzgg4xOTIuMTY4LjMyLjEzM4IOZmFrZWRvbWFpbi5jb22C
EWZha2Vsb2NhbGhvc3QuY29tMCwGCWCGSAGG+EIBDQQfFh1PcGVuU1NMIEdlbmVy
YXRlZCBDZXJ0aWZpY2F0ZTANBgkqhkiG9w0BAQsFAAOCAgEAX1HfhlY3Gil9jvrN
oxe9Sd6sdZ9R2BiV8y8lO0omYYpuT1mrki1bMDXh1BHRGiXxDCHYbNF5r6eVWLOH
7qb+CyBU0WaW+L+ztWTawk2kfOD5nm8j+VrK84/MS+blDbAbHoJWRxN4ZFETcZ2x
tMeE1WPm33T3VlII7k62IdK8NpgcN1+PySDWWJyf6cHoP9MrPWZT34Sjh1RZXerS
A6x/HPSjIdMB76v1uS4I/n5+ALXU55cG//jPB1PRRmedVR10y6nIHyJWk2T5vWSO
zkkjQQVOaUpFqHlT1Oh/u0Z5pCESQs8SUIop/Fup3CKL3mgtAtpjukTPLlGzTNBT
xlDbQnp4m9gxwh+HnznMBfaP/NFFHwoNGujHi9haImlTezhzhO/iJOt3GKi8Fea+
Tvnw4xUp1lNqydOtZk+e2DONYR+GLEim9gfY8vwG/erzYEIQ51ZmnfE8h6FVfYc/
6x9cn+10baSSqKkDakpPK7FNqqroeR/fuNidh/TwhoVFfCQ8UMLWvb9YTQQ0xx3I
6MM143Eso7/QR1BZnGVRG2Sgt1D1Pi0/hbdtvAYV7SBFkbdpGddAI0gp/Nr3IxZC
pA6Y0EQjY/Cv0E0Q+aPpmY7p6RCLq97Vp+ZFm5jqa1e1ZyZGfnKKVoQExTsAHrj8
lWytKkDkTTViFG08p19/K4h10tI=
-----END CERTIFICATE-----
