Certificate:
    Data:
        Version: 3 (0x2)
        Serial Number: 4 (0x4)
    Signature Algorithm: sha256WithRSAEncryption
        Issuer: C=US, ST=Maryland, L=Baltimore, O=Test CA, Limited, OU=Server Research Department, CN=Test CA/emailAddress=test@example.com
        Validity
            Not Before: Jul 26 09:36:30 2017 GMT
            Not After : Apr 21 09:36:30 2020 GMT
        Subject: C=US, ST=MD, L=Baltimore, O=Test CA, Limited, CN=fakelocalhost.com
        Subject Public Key Info:
            Public Key Algorithm: rsaEncryption
                Public-Key: (2048 bit)
                Modulus:
                    00:a0:18:ca:b9:c6:2b:c7:1b:5f:83:d4:4a:64:e4:
                    09:bb:8d:db:d6:4a:bc:08:cc:0c:6b:30:6c:09:ca:
                    f5:76:9b:9e:6b:ef:60:38:14:22:d4:98:5e:0d:9a:
                    1c:27:0c:53:d9:0d:dd:2e:5e:bd:46:13:b9:28:5d:
                    54:6d:ca:0d:0f:31:b2:ec:26:e9:66:8b:7f:3d:06:
                    ea:49:51:39:ac:5f:b3:25:6b:e1:c9:70:4b:08:9f:
                    ec:88:67:5b:8a:55:69:36:d6:2e:1d:e5:de:64:f2:
                    a9:28:ea:5d:90:03:5b:88:cf:e8:df:98:21:e3:4d:
                    23:2e:ec:db:8d:ec:dc:27:11:47:f9:f2:66:23:21:
                    dd:c9:30:4a:7e:26:85:40:90:24:06:34:b0:9c:9b:
                    51:15:ff:81:98:e1:3d:39:ca:39:b9:52:58:5d:b6:
                    9a:3e:9f:89:43:33:7a:42:2f:b3:eb:61:52:2c:1c:
                    83:1a:5c:f3:0f:27:36:8b:45:b0:12:30:50:ed:62:
                    19:75:53:19:0d:a7:16:44:f9:ea:2d:6a:9a:c4:a6:
                    4e:63:97:98:be:49:77:b8:c7:17:60:63:98:2c:59:
                    c2:f5:c2:28:21:9d:a5:aa:75:d4:2b:80:f7:75:04:
                    8c:cf:b1:4f:77:80:a9:7d:7d:95:8f:95:2c:89:ae:
                    69:df
                Exponent: 65537 (0x10001)
        X509v3 extensions:
            X509v3 Subject Key Identifier: 
                65:1B:79:67:6C:6D:4A:D3:F0:3A:B5:2B:E5:B6:02:58:4A:A2:5A:D6
            X509v3 Authority Key Identifier: 
                keyid:26:90:2E:E1:78:77:DD:DA:08:69:BE:1A:82:32:DA:A8:F5:4B:70:43

            X509v3 Basic Constraints: 
                CA:FALSE
            X509v3 Key Usage: 
                Digital Signature, Key Encipherment
            X509v3 Subject Alternative Name: 
                DNS:fakedomain.com, DNS:fakelocalhost.com, DNS:localhost, IP Address:192.168.32.133, IP Address:127.0.0.1
            Netscape Comment: 
                OpenSSL Generated Certificate
    Signature Algorithm: sha256WithRSAEncryption
         13:6e:96:be:f1:14:c5:a9:ec:63:78:8b:f6:1e:e4:4a:c0:c2:
         b9:3e:44:07:9e:76:15:9b:a1:98:fa:7d:10:3e:ac:3e:d0:64:
         fd:be:21:f5:af:32:22:4b:28:51:49:3f:59:a8:7d:70:6a:95:
         01:95:fb:6b:b5:e2:e1:82:3d:9b:5a:1c:26:b7:c3:52:72:a7:
         33:01:68:b2:95:49:fb:98:72:5f:18:da:30:ee:35:9a:7a:a7:
         98:ca:e2:b1:9d:07:d0:8f:77:53:6f:b6:a4:cf:b0:ae:2d:86:
         37:44:29:fa:19:07:65:10:df:d6:f6:c5:f7:d4:60:07:2f:83:
         cf:56:e5:e9:53:93:ed:d4:f7:29:35:1b:08:f2:43:ea:76:18:
         c8:cf:6d:e9:8a:18:26:cf:8d:d0:ef:dd:d3:b7:2d:7a:f8:bf:
         99:6f:8b:77:0b:12:08:7f:09:70:1f:71:ea:ab:35:2f:21:16:
         b3:d9:a6:c9:48:9a:4b:17:82:dc:e6:80:fe:55:6c:e2:85:b0:
         1c:bd:eb:42:2c:95:7e:be:46:98:10:37:ad:d8:c8:c7:b9:dc:
         4e:c4:0c:8d:a7:96:d8:e2:4f:bc:ea:fc:a4:46:27:43:7d:14:
         f5:87:e5:dc:10:ed:88:4a:46:7a:a1:2f:18:17:2e:1c:15:2e:
         85:f1:25:81:2f:cb:3a:99:9b:57:3e:a2:15:3e:80:93:07:26:
         77:f3:28:03:bb:1a:8e:a8:59:be:0f:f7:61:e3:1a:7e:48:35:
         0e:26:74:a7:05:5a:da:1f:dd:8d:d9:49:89:45:0d:24:94:89:
         94:fa:71:14:6c:58:b3:bb:2c:f7:76:2e:8f:7d:d6:f9:89:98:
         f1:f8:61:01:1b:7f:bc:d3:c1:98:96:e0:f6:3d:a7:31:86:84:
         14:28:72:ad:d7:9b:b0:24:36:64:29:9a:b5:ff:ac:c7:56:58:
         6d:df:a8:44:59:d3:9b:bb:4a:da:6f:7f:3a:5d:6c:f5:61:be:
         a4:d9:e5:a7:06:a8:83:9c:88:0b:4c:6b:80:40:87:c4:a0:f0:
         79:da:b3:8e:56:82:26:0b:43:2f:db:70:00:61:3b:f7:e3:d1:
         99:2f:df:30:1e:e8:75:8d:53:af:9d:bb:b4:d9:11:6e:fb:9c:
         eb:a0:88:db:03:7c:ee:92:10:11:95:0c:61:55:67:f8:5c:16:
         f3:f4:0d:78:86:74:0a:30:12:8a:34:90:39:b7:8d:8a:24:66:
         c5:b2:a5:7a:29:3b:1f:cd:8d:21:45:ef:85:a6:be:ac:5f:e7:
         6a:15:2f:3a:47:19:2b:ae:b6:9c:67:0e:1b:86:9d:b1:8e:1a:
         fa:be:f9:a9:ca:61:50:0b
-----BEGIN CERTIFICATE-----
MIIFVzCCAz+gAwIBAgIBBDANBgkqhkiG9w0BAQsFADCBpzELMAkGA1UEBhMCVVMx
ETAPBgNVBAgMCE1hcnlsYW5kMRIwEAYDVQQHDAlCYWx0aW1vcmUxGTAXBgNVBAoM
EFRlc3QgQ0EsIExpbWl0ZWQxIzAhBgNVBAsMGlNlcnZlciBSZXNlYXJjaCBEZXBh
cnRtZW50MRAwDgYDVQQDDAdUZXN0IENBMR8wHQYJKoZIhvcNAQkBFhB0ZXN0QGV4
YW1wbGUuY29tMB4XDTE3MDcyNjA5MzYzMFoXDTIwMDQyMTA5MzYzMFowZTELMAkG
A1UEBhMCVVMxCzAJBgNVBAgMAk1EMRIwEAYDVQQHDAlCYWx0aW1vcmUxGTAXBgNV
BAoMEFRlc3QgQ0EsIExpbWl0ZWQxGjAYBgNVBAMMEWZha2Vsb2NhbGhvc3QuY29t
MIIBIjANBgkqhkiG9w0BAQEFAAOCAQ8AMIIBCgKCAQEAoBjKucYrxxtfg9RKZOQJ
u43b1kq8CMwMazBsCcr1dpuea+9gOBQi1JheDZocJwxT2Q3dLl69RhO5KF1UbcoN
DzGy7CbpZot/PQbqSVE5rF+zJWvhyXBLCJ/siGdbilVpNtYuHeXeZPKpKOpdkANb
iM/o35gh400jLuzbjezcJxFH+fJmIyHdyTBKfiaFQJAkBjSwnJtRFf+BmOE9Oco5
uVJYXbaaPp+JQzN6Qi+z62FSLByDGlzzDyc2i0WwEjBQ7WIZdVMZDacWRPnqLWqa
xKZOY5eYvkl3uMcXYGOYLFnC9cIoIZ2lqnXUK4D3dQSMz7FPd4CpfX2Vj5Usia5p
3wIDAQABo4HOMIHLMB0GA1UdDgQWBBRlG3lnbG1K0/A6tSvltgJYSqJa1jAfBgNV
HSMEGDAWgBQmkC7heHfd2ghpvhqCMtqo9UtwQzAJBgNVHRMEAjAAMAsGA1UdDwQE
AwIFoDBDBgNVHREEPDA6gg5mYWtlZG9tYWluLmNvbYIRZmFrZWxvY2FsaG9zdC5j
b22CCWxvY2FsaG9zdIcEwKgghYcEfwAAATAsBglghkgBhvhCAQ0EHxYdT3BlblNT
TCBHZW5lcmF0ZWQgQ2VydGlmaWNhdGUwDQYJKoZIhvcNAQELBQADggIBABNulr7x
FMWp7GN4i/Ye5ErAwrk+RAeedhWboZj6fRA+rD7QZP2+IfWvMiJLKFFJP1mofXBq
lQGV+2u14uGCPZtaHCa3w1JypzMBaLKVSfuYcl8Y2jDuNZp6p5jK4rGdB9CPd1Nv
tqTPsK4thjdEKfoZB2UQ39b2xffUYAcvg89W5elTk+3U9yk1GwjyQ+p2GMjPbemK
GCbPjdDv3dO3LXr4v5lvi3cLEgh/CXAfceqrNS8hFrPZpslImksXgtzmgP5VbOKF
sBy960IslX6+RpgQN63YyMe53E7EDI2nltjiT7zq/KRGJ0N9FPWH5dwQ7YhKRnqh
LxgXLhwVLoXxJYEvyzqZm1c+ohU+gJMHJnfzKAO7Go6oWb4P92HjGn5INQ4mdKcF
Wtof3Y3ZSYlFDSSUiZT6cRRsWLO7LPd2Lo991vmJmPH4YQEbf7zTwZiW4PY9pzGG
hBQocq3Xm7AkNmQpmrX/rMdWWG3fqERZ05u7StpvfzpdbPVhvqTZ5acGqIOciAtM
a4BAh8Sg8Hnas45WgiYLQy/bcABhO/fj0Zkv3zAe6HWNU6+du7TZEW77nOugiNsD
fO6SEBGVDGFVZ/hcFvP0DXiGdAowEoo0kDm3jYokZsWypXopOx/NjSFF74Wmvqxf
52oVLzpHGSuutpxnDhuGnbGOGvq++anKYVAL
-----END CERTIFICATE-----
