Certificate:
    Data:
        Version: 3 (0x2)
        Serial Number: 6 (0x6)
    Signature Algorithm: sha256WithRSAEncryption
        Issuer: C=US, ST=Maryland, L=Baltimore, O=Test CA, Limited, OU=Server Research Department, CN=Test CA/emailAddress=test@example.com
        Validity
            Not Before: Jul 26 10:01:38 2017 GMT
            Not After : Apr 21 10:01:38 2020 GMT
        Subject: C=US, ST=MD, L=Baltimore, O=Test CA, Limited, CN=fakelocalhost.com
        Subject Public Key Info:
            Public Key Algorithm: rsaEncryption
                Public-Key: (2048 bit)
                Modulus:
                    00:b7:74:a1:e8:fe:a8:cb:e2:26:10:cf:b8:53:2c:
                    c2:2c:1f:54:86:4f:34:18:3e:c7:36:2b:3e:12:d8:
                    0d:2d:98:12:02:f8:b8:ca:ba:2f:20:ac:1e:c5:6c:
                    a1:2f:e7:83:6f:c3:f9:43:2d:d7:05:0c:cd:f6:0c:
                    2e:6a:63:cf:46:b2:62:65:3b:55:59:a7:68:1e:20:
                    5c:dd:7b:20:ef:05:a0:7b:58:6e:f2:8e:93:7b:4b:
                    40:9f:42:d6:45:e1:10:84:db:d1:96:77:76:34:06:
                    9b:17:2f:a5:19:e4:da:48:d1:c8:0a:4a:6b:be:24:
                    e2:da:2f:2d:03:f4:1d:bb:89:b8:ac:e7:96:1b:38:
                    ba:6f:18:ba:4c:d2:f2:c2:6d:1b:43:b1:8c:68:1f:
                    39:90:ae:46:1a:0a:cf:d0:36:a2:0a:36:25:d2:e0:
                    5d:a2:be:9a:1a:00:aa:ea:fc:a4:52:67:d3:ee:f3:
                    bf:aa:7d:63:93:8c:75:60:01:ea:60:d4:c9:98:33:
                    6f:a0:e0:bf:f0:d7:87:e4:a3:99:01:07:47:67:9c:
                    c5:5f:e1:2b:96:e1:7f:ad:56:75:c2:3a:f4:32:a4:
                    1b:b6:a6:53:3e:dc:82:2c:ce:56:21:2f:48:17:45:
                    f7:79:67:ba:46:00:37:e2:61:a3:09:8a:de:18:65:
                    39:31
                Exponent: 65537 (0x10001)
        X509v3 extensions:
            X509v3 Subject Key Identifier: 
                38:7F:4C:90:96:A3:2B:E6:93:E0:3D:0C:D4:A8:10:AE:85:F4:E0:2B
            X509v3 Authority Key Identifier: 
                keyid:26:90:2E:E1:78:77:DD:DA:08:69:BE:1A:82:32:DA:A8:F5:4B:70:43

            X509v3 Basic Constraints: 
                CA:FALSE
            X509v3 Key Usage: 
                Digital Signature, Key Encipherment
            X509v3 Subject Alternative Name: 
                DNS:fakedomain.com, DNS:fakelocalhost.com, DNS:localhost, IP Address:192.168.32.133, IP Address:127.0.0.1
            Netscape Comment: 
                OpenSSL Generated Certificate
    Signature Algorithm: sha256WithRSAEncryption
         47:c6:7f:35:02:bc:86:a6:03:ec:18:13:80:4c:76:8b:4f:e2:
         dc:6c:fd:2a:e3:4f:fd:97:7b:3d:c2:70:f6:35:18:24:9d:eb:
         b8:b5:ed:c2:1d:1e:89:4e:c0:83:76:7f:d9:ac:d2:44:da:25:
         f4:c0:49:ef:0c:3f:71:60:ce:5d:16:54:a1:1a:4a:c6:be:7f:
         f1:d9:69:85:e9:e4:a2:ba:86:94:3f:99:3d:92:68:23:4a:86:
         0b:60:3c:6b:f1:bb:31:77:73:7d:32:5d:c0:87:03:fb:2a:8b:
         8f:02:2b:55:f3:b4:e6:29:5a:36:40:45:ae:64:79:1b:1e:19:
         fc:7e:c5:f5:20:38:a7:a5:17:73:c2:cb:55:69:43:52:3a:ad:
         96:87:e5:33:a5:32:20:48:06:13:c8:9c:1f:5a:9f:89:27:68:
         2e:09:1c:8c:12:65:5e:91:ce:2d:dc:aa:35:97:00:7f:12:39:
         64:21:50:44:70:49:c7:03:1a:6b:ee:6b:6b:da:b2:cd:b8:0e:
         9b:5c:f2:96:69:97:1e:18:44:32:98:33:cd:e6:f7:3a:29:95:
         af:26:55:44:e2:1f:ff:6c:12:d9:9d:0f:0d:c8:76:0d:87:03:
         e0:a9:e5:ea:58:88:0a:80:0e:4c:69:9d:bb:48:e2:02:15:0a:
         ca:b5:ba:0e:59:5e:77:38:2d:79:4d:55:c4:a6:2d:e4:7a:ee:
         fc:7b:df:07:36:a4:9a:d7:ef:95:f9:e1:cd:45:ec:93:01:7f:
         e9:a0:47:88:ea:a1:62:c2:eb:1e:1b:ba:b4:2a:1a:05:90:88:
         5a:7a:c0:ff:84:23:bc:d0:78:9f:7f:27:ad:4a:d1:aa:83:6d:
         14:b3:6e:51:9f:8b:b9:2d:b6:e0:bd:15:f6:b2:97:fa:24:db:
         fb:47:5f:05:c4:33:07:8f:9a:9a:c8:ee:b8:5c:23:f8:02:b1:
         5b:fc:11:07:f9:1e:5b:07:d4:6c:04:92:bc:88:f0:53:b1:2a:
         d8:b3:81:1b:db:f9:12:88:2b:df:20:f3:f0:d7:63:61:6a:ff:
         17:1e:81:1d:8e:43:0d:6b:cb:e1:5e:46:54:ac:ff:43:43:2d:
         c7:58:7d:19:7a:e8:6d:82:7a:45:92:21:40:80:47:3b:df:0f:
         3c:6b:24:f9:67:71:9f:50:3e:b5:96:1c:84:23:72:79:f2:7c:
         b6:eb:1a:d4:11:30:26:72:a3:84:4d:61:35:91:31:58:58:3e:
         8f:e3:1d:fd:0a:0c:ae:5f:9a:07:eb:57:49:c8:a2:fd:2a:01:
         4b:0d:49:3b:e9:7f:5d:b1:73:fe:13:f5:3d:f1:86:d5:e4:d7:
         9e:96:96:da:60:3d:39:88
-----BEGIN CERTIFICATE-----
MIIFVzCCAz+gAwIBAgIBBjANBgkqhkiG9w0BAQsFADCBpzELMAkGA1UEBhMCVVMx
ETAPBgNVBAgMCE1hcnlsYW5kMRIwEAYDVQQHDAlCYWx0aW1vcmUxGTAXBgNVBAoM
EFRlc3QgQ0EsIExpbWl0ZWQxIzAhBgNVBAsMGlNlcnZlciBSZXNlYXJjaCBEZXBh
cnRtZW50MRAwDgYDVQQDDAdUZXN0IENBMR8wHQYJKoZIhvcNAQkBFhB0ZXN0QGV4
YW1wbGUuY29tMB4XDTE3MDcyNjEwMDEzOFoXDTIwMDQyMTEwMDEzOFowZTELMAkG
A1UEBhMCVVMxCzAJBgNVBAgMAk1EMRIwEAYDVQQHDAlCYWx0aW1vcmUxGTAXBgNV
BAoMEFRlc3QgQ0EsIExpbWl0ZWQxGjAYBgNVBAMMEWZha2Vsb2NhbGhvc3QuY29t
MIIBIjANBgkqhkiG9w0BAQEFAAOCAQ8AMIIBCgKCAQEAt3Sh6P6oy+ImEM+4UyzC
LB9Uhk80GD7HNis+EtgNLZgSAvi4yrovIKwexWyhL+eDb8P5Qy3XBQzN9gwuamPP
RrJiZTtVWadoHiBc3Xsg7wWge1hu8o6Te0tAn0LWReEQhNvRlnd2NAabFy+lGeTa
SNHICkprviTi2i8tA/Qdu4m4rOeWGzi6bxi6TNLywm0bQ7GMaB85kK5GGgrP0Dai
CjYl0uBdor6aGgCq6vykUmfT7vO/qn1jk4x1YAHqYNTJmDNvoOC/8NeH5KOZAQdH
Z5zFX+ErluF/rVZ1wjr0MqQbtqZTPtyCLM5WIS9IF0X3eWe6RgA34mGjCYreGGU5
MQIDAQABo4HOMIHLMB0GA1UdDgQWBBQ4f0yQlqMr5pPgPQzUqBCuhfTgKzAfBgNV
HSMEGDAWgBQmkC7heHfd2ghpvhqCMtqo9UtwQzAJBgNVHRMEAjAAMAsGA1UdDwQE
AwIFoDBDBgNVHREEPDA6gg5mYWtlZG9tYWluLmNvbYIRZmFrZWxvY2FsaG9zdC5j
b22CCWxvY2FsaG9zdIcEwKgghYcEfwAAATAsBglghkgBhvhCAQ0EHxYdT3BlblNT
TCBHZW5lcmF0ZWQgQ2VydGlmaWNhdGUwDQYJKoZIhvcNAQELBQADggIBAEfGfzUC
vIamA+wYE4BMdotP4txs/SrjT/2Xez3CcPY1GCSd67i17cIdHolOwIN2f9ms0kTa
JfTASe8MP3Fgzl0WVKEaSsa+f/HZaYXp5KK6hpQ/mT2SaCNKhgtgPGvxuzF3c30y
XcCHA/sqi48CK1XztOYpWjZARa5keRseGfx+xfUgOKelF3PCy1VpQ1I6rZaH5TOl
MiBIBhPInB9an4knaC4JHIwSZV6Rzi3cqjWXAH8SOWQhUERwSccDGmvua2vass24
Dptc8pZplx4YRDKYM83m9zopla8mVUTiH/9sEtmdDw3Idg2HA+Cp5epYiAqADkxp
nbtI4gIVCsq1ug5ZXnc4LXlNVcSmLeR67vx73wc2pJrX75X54c1F7JMBf+mgR4jq
oWLC6x4burQqGgWQiFp6wP+EI7zQeJ9/J61K0aqDbRSzblGfi7kttuC9Ffayl/ok
2/tHXwXEMwePmprI7rhcI/gCsVv8EQf5HlsH1GwEkryI8FOxKtizgRvb+RKIK98g
8/DXY2Fq/xcegR2OQw1ry+FeRlSs/0NDLcdYfRl66G2CekWSIUCARzvfDzxrJPln
cZ9QPrWWHIQjcnnyfLbrGtQRMCZyo4RNYTWRMVhYPo/jHf0KDK5fmgfrV0nIov0q
AUsNSTvpf12xc/4T9T3xhtXk156WltpgPTmI
-----END CERTIFICATE-----
